; Function Attrs: nounwind uwtable
define hidden ptr @mpd_realloc(ptr noundef %0, i64 noundef %1, i64 noundef %2, ptr noundef writeonly captures(none) %3) local_unnamed_addr #4 {
  %umul = tail call { i64, i1 } @llvm.umul.with.overflow.i64(i64 %2, i64 %1)
  %5 = extractvalue { i64, i1 } %umul, 1
  br i1 %5, label %.sink.split, label %6

6:                                                ; preds = %4
  %umul.value = extractvalue { i64, i1 } %umul, 0
  %7 = load ptr, ptr @mpd_reallocfunc, align 8, !tbaa !3
  %8 = tail call ptr %7(ptr noundef %0, i64 noundef %umul.value) #9
  %9 = icmp eq ptr %8, null
  br i1 %9, label %.sink.split, label %10

.sink.split:                                      ; preds = %6, %4
  store i8 1, ptr %3, align 1, !tbaa !7
  br label %10

10:                                               ; preds = %.sink.split, %6
  %.0 = phi ptr [ %8, %6 ], [ %0, %.sink.split ]
  ret ptr %.0
}